target datalayout = "e-m:e-p270:32:32-p271:32:32-p272:64:64-i64:64-i128:128-f80:128-n8:16:32:64-S128"
target triple = "x86_64-pc-linux-gnu"

%struct.FFTextReader = type { i32, ptr, [8 x i8], i32, i32, %struct.FFIOContext }
%struct.FFIOContext = type { %struct.AVIOContext, ptr, i32, i32, i64, i64, i64, i64, i32, i32, i32, i64 }
%struct.AVIOContext = type { ptr, ptr, i32, ptr, ptr, ptr, ptr, ptr, ptr, i64, i32, i32, i32, i32, i32, i64, ptr, ptr, ptr, ptr, i32, i32, ptr, ptr, ptr, i32, ptr, i64, i64 }

@ff_log2_tab = external constant [256 x i8], align 16

; Function Attrs: alwaysinline nounwind willreturn memory(none) uwtable
define internal i32 @ff_log2_c(i32 noundef %0) #5 {
  %2 = alloca i32, align 4
  %3 = alloca i32, align 4
  store i32 %0, ptr %2, align 4, !tbaa !21
  call void @llvm.lifetime.start.p0(i64 4, ptr %3) #9
  store i32 0, ptr %3, align 4, !tbaa !21
  %4 = load i32, ptr %2, align 4, !tbaa !21
  %5 = and i32 %4, -65536
  %6 = icmp ne i32 %5, 0
  br i1 %6, label %7, label %12

7:                                                ; preds = %1
  %8 = load i32, ptr %2, align 4, !tbaa !21
  %9 = lshr i32 %8, 16
  store i32 %9, ptr %2, align 4, !tbaa !21
  %10 = load i32, ptr %3, align 4, !tbaa !21
  %11 = add nsw i32 %10, 16
  store i32 %11, ptr %3, align 4, !tbaa !21
  br label %12

12:                                               ; preds = %7, %1
  %13 = load i32, ptr %2, align 4, !tbaa !21
  %14 = and i32 %13, 65280
  %15 = icmp ne i32 %14, 0
  br i1 %15, label %16, label %21

16:                                               ; preds = %12
  %17 = load i32, ptr %2, align 4, !tbaa !21
  %18 = lshr i32 %17, 8
  store i32 %18, ptr %2, align 4, !tbaa !21
  %19 = load i32, ptr %3, align 4, !tbaa !21
  %20 = add nsw i32 %19, 8
  store i32 %20, ptr %3, align 4, !tbaa !21
  br label %21

21:                                               ; preds = %16, %12
  %22 = load i32, ptr %2, align 4, !tbaa !21
  %23 = zext i32 %22 to i64
  %24 = getelementptr inbounds nuw [256 x i8], ptr @ff_log2_tab, i64 0, i64 %23
  %25 = load i8, ptr %24, align 1, !tbaa !22
  %26 = zext i8 %25 to i32
  %27 = load i32, ptr %3, align 4, !tbaa !21
  %28 = add nsw i32 %27, %26
  store i32 %28, ptr %3, align 4, !tbaa !21
  %29 = load i32, ptr %3, align 4, !tbaa !21
  call void @llvm.lifetime.end.p0(i64 4, ptr %3) #9
  ret i32 %29
}

; Function Attrs: nounwind uwtable
define i32 @ff_text_r8(ptr noundef %0) #0 {
  %2 = alloca i32, align 4
  %3 = alloca ptr, align 8
  %4 = alloca i32, align 4
  %5 = alloca i8, align 1
  %6 = alloca i32, align 4
  %7 = alloca i32, align 4
  %8 = alloca i32, align 4
  %9 = alloca i32, align 4
  %10 = alloca i32, align 4
  %11 = alloca i32, align 4
  store ptr %0, ptr %3, align 8, !tbaa !4
  call void @llvm.lifetime.start.p0(i64 4, ptr %4) #9
  call void @llvm.lifetime.start.p0(i64 1, ptr %5) #9
  %12 = load ptr, ptr %3, align 8, !tbaa !4
  %13 = getelementptr inbounds nuw %struct.FFTextReader, ptr %12, i32 0, i32 3
  %14 = load i32, ptr %13, align 8, !tbaa !19
  %15 = load ptr, ptr %3, align 8, !tbaa !4
  %16 = getelementptr inbounds nuw %struct.FFTextReader, ptr %15, i32 0, i32 4
  %17 = load i32, ptr %16, align 4, !tbaa !18
  %18 = icmp slt i32 %14, %17
  br i1 %18, label %19, label %30

19:                                               ; preds = %1
  %20 = load ptr, ptr %3, align 8, !tbaa !4
  %21 = getelementptr inbounds nuw %struct.FFTextReader, ptr %20, i32 0, i32 2
  %22 = load ptr, ptr %3, align 8, !tbaa !4
  %23 = getelementptr inbounds nuw %struct.FFTextReader, ptr %22, i32 0, i32 3
  %24 = load i32, ptr %23, align 8, !tbaa !19
  %25 = add nsw i32 %24, 1
  store i32 %25, ptr %23, align 8, !tbaa !19
  %26 = sext i32 %24 to i64
  %27 = getelementptr inbounds [8 x i8], ptr %21, i64 0, i64 %26
  %28 = load i8, ptr %27, align 1, !tbaa !22
  %29 = zext i8 %28 to i32
  store i32 %29, ptr %2, align 4
  store i32 1, ptr %6, align 4
  br label %190

30:                                               ; preds = %1
  %31 = load ptr, ptr %3, align 8, !tbaa !4
  %32 = getelementptr inbounds nuw %struct.FFTextReader, ptr %31, i32 0, i32 0
  %33 = load i32, ptr %32, align 8, !tbaa !20
  %34 = icmp eq i32 %33, 1
  br i1 %34, label %35, label %66

35:                                               ; preds = %30
  %36 = load ptr, ptr %3, align 8, !tbaa !4
  %37 = getelementptr inbounds nuw %struct.FFTextReader, ptr %36, i32 0, i32 1
  %38 = load ptr, ptr %37, align 8, !tbaa !10
  %39 = call i32 @avio_rl16(ptr noundef %38)
  store i32 %39, ptr %4, align 4, !tbaa !21
  call void @llvm.lifetime.start.p0(i64 4, ptr %7) #9
  %40 = load i32, ptr %4, align 4, !tbaa !21
  %41 = sub i32 %40, 55296
  store i32 %41, ptr %7, align 4, !tbaa !21
  %42 = load i32, ptr %7, align 4, !tbaa !21
  %43 = icmp ult i32 %42, 2048
  br i1 %43, label %44, label %62

44:                                               ; preds = %35
  %45 = load ptr, ptr %3, align 8, !tbaa !4
  %46 = getelementptr inbounds nuw %struct.FFTextReader, ptr %45, i32 0, i32 1
  %47 = load ptr, ptr %46, align 8, !tbaa !10
  %48 = call i32 @avio_rl16(ptr noundef %47)
  %49 = sub i32 %48, 56320
  store i32 %49, ptr %4, align 4, !tbaa !21
  %50 = load i32, ptr %4, align 4, !tbaa !21
  %51 = icmp ugt i32 %50, 1023
  br i1 %51, label %55, label %52

52:                                               ; preds = %44
  %53 = load i32, ptr %7, align 4, !tbaa !21
  %54 = icmp ugt i32 %53, 1023
  br i1 %54, label %55, label %56

55:                                               ; preds = %52, %44
  store i32 0, ptr %2, align 4
  store i32 1, ptr %6, align 4
  br label %63

56:                                               ; preds = %52
  %57 = load i32, ptr %7, align 4, !tbaa !21
  %58 = shl i32 %57, 10
  %59 = add i32 %58, 65536
  %60 = load i32, ptr %4, align 4, !tbaa !21
  %61 = add i32 %60, %59
  store i32 %61, ptr %4, align 4, !tbaa !21
  br label %62

62:                                               ; preds = %56, %35
  store i32 0, ptr %6, align 4
  br label %63

63:                                               ; preds = %62, %55
  call void @llvm.lifetime.end.p0(i64 4, ptr %7) #9
  %64 = load i32, ptr %6, align 4
  switch i32 %64, label %190 [
    i32 0, label %65
  ]

65:                                               ; preds = %63
  br label %108

66:                                               ; preds = %30
  %67 = load ptr, ptr %3, align 8, !tbaa !4
  %68 = getelementptr inbounds nuw %struct.FFTextReader, ptr %67, i32 0, i32 0
  %69 = load i32, ptr %68, align 8, !tbaa !20
  %70 = icmp eq i32 %69, 2
  br i1 %70, label %71, label %102

71:                                               ; preds = %66
  %72 = load ptr, ptr %3, align 8, !tbaa !4
  %73 = getelementptr inbounds nuw %struct.FFTextReader, ptr %72, i32 0, i32 1
  %74 = load ptr, ptr %73, align 8, !tbaa !10
  %75 = call i32 @avio_rb16(ptr noundef %74)
  store i32 %75, ptr %4, align 4, !tbaa !21
  call void @llvm.lifetime.start.p0(i64 4, ptr %8) #9
  %76 = load i32, ptr %4, align 4, !tbaa !21
  %77 = sub i32 %76, 55296
  store i32 %77, ptr %8, align 4, !tbaa !21
  %78 = load i32, ptr %8, align 4, !tbaa !21
  %79 = icmp ult i32 %78, 2048
  br i1 %79, label %80, label %98

80:                                               ; preds = %71
  %81 = load ptr, ptr %3, align 8, !tbaa !4
  %82 = getelementptr inbounds nuw %struct.FFTextReader, ptr %81, i32 0, i32 1
  %83 = load ptr, ptr %82, align 8, !tbaa !10
  %84 = call i32 @avio_rb16(ptr noundef %83)
  %85 = sub i32 %84, 56320
  store i32 %85, ptr %4, align 4, !tbaa !21
  %86 = load i32, ptr %4, align 4, !tbaa !21
  %87 = icmp ugt i32 %86, 1023
  br i1 %87, label %91, label %88

88:                                               ; preds = %80
  %89 = load i32, ptr %8, align 4, !tbaa !21
  %90 = icmp ugt i32 %89, 1023
  br i1 %90, label %91, label %92

91:                                               ; preds = %88, %80
  store i32 0, ptr %2, align 4
  store i32 1, ptr %6, align 4
  br label %99

92:                                               ; preds = %88
  %93 = load i32, ptr %8, align 4, !tbaa !21
  %94 = shl i32 %93, 10
  %95 = add i32 %94, 65536
  %96 = load i32, ptr %4, align 4, !tbaa !21
  %97 = add i32 %96, %95
  store i32 %97, ptr %4, align 4, !tbaa !21
  br label %98

98:                                               ; preds = %92, %71
  store i32 0, ptr %6, align 4
  br label %99

99:                                               ; preds = %98, %91
  call void @llvm.lifetime.end.p0(i64 4, ptr %8) #9
  %100 = load i32, ptr %6, align 4
  switch i32 %100, label %190 [
    i32 0, label %101
  ]

101:                                              ; preds = %99
  br label %107

102:                                              ; preds = %66
  %103 = load ptr, ptr %3, align 8, !tbaa !4
  %104 = getelementptr inbounds nuw %struct.FFTextReader, ptr %103, i32 0, i32 1
  %105 = load ptr, ptr %104, align 8, !tbaa !10
  %106 = call i32 @avio_r8(ptr noundef %105)
  store i32 %106, ptr %2, align 4
  store i32 1, ptr %6, align 4
  br label %190

107:                                              ; preds = %101
  br label %108

108:                                              ; preds = %107, %65
  %109 = load i32, ptr %4, align 4, !tbaa !21
  %110 = icmp ne i32 %109, 0
  br i1 %110, label %112, label %111

111:                                              ; preds = %108
  store i32 0, ptr %2, align 4
  store i32 1, ptr %6, align 4
  br label %190

112:                                              ; preds = %108
  %113 = load ptr, ptr %3, align 8, !tbaa !4
  %114 = getelementptr inbounds nuw %struct.FFTextReader, ptr %113, i32 0, i32 3
  store i32 0, ptr %114, align 8, !tbaa !19
  %115 = load ptr, ptr %3, align 8, !tbaa !4
  %116 = getelementptr inbounds nuw %struct.FFTextReader, ptr %115, i32 0, i32 4
  store i32 0, ptr %116, align 4, !tbaa !18
  call void @llvm.lifetime.start.p0(i64 4, ptr %9) #9
  call void @llvm.lifetime.start.p0(i64 4, ptr %10) #9
  call void @llvm.lifetime.start.p0(i64 4, ptr %11) #9
  %117 = load i32, ptr %4, align 4, !tbaa !21
  store i32 %117, ptr %11, align 4, !tbaa !21
  %118 = load i32, ptr %11, align 4, !tbaa !21
  %119 = icmp ult i32 %118, 128
  br i1 %119, label %120, label %132

120:                                              ; preds = %112
  %121 = load i32, ptr %11, align 4, !tbaa !21
  %122 = trunc i32 %121 to i8
  store i8 %122, ptr %5, align 1, !tbaa !22
  %123 = load i8, ptr %5, align 1, !tbaa !22
  %124 = load ptr, ptr %3, align 8, !tbaa !4
  %125 = getelementptr inbounds nuw %struct.FFTextReader, ptr %124, i32 0, i32 2
  %126 = load ptr, ptr %3, align 8, !tbaa !4
  %127 = getelementptr inbounds nuw %struct.FFTextReader, ptr %126, i32 0, i32 4
  %128 = load i32, ptr %127, align 4, !tbaa !18
  %129 = add nsw i32 %128, 1
  store i32 %129, ptr %127, align 4, !tbaa !18
  %130 = sext i32 %128 to i64
  %131 = getelementptr inbounds [8 x i8], ptr %125, i64 0, i64 %130
  store i8 %123, ptr %131, align 1, !tbaa !22
  br label %179

132:                                              ; preds = %112
  %133 = load i32, ptr %11, align 4, !tbaa !21
  %134 = call i32 @ff_log2_c(i32 noundef %133) #11
  %135 = add nsw i32 %134, 4
  %136 = sdiv i32 %135, 5
  store i32 %136, ptr %9, align 4, !tbaa !21
  %137 = load i32, ptr %9, align 4, !tbaa !21
  %138 = sub nsw i32 %137, 1
  %139 = mul nsw i32 %138, 6
  store i32 %139, ptr %10, align 4, !tbaa !21
  %140 = load i32, ptr %9, align 4, !tbaa !21
  %141 = ashr i32 256, %140
  %142 = sub nsw i32 256, %141
  %143 = load i32, ptr %11, align 4, !tbaa !21
  %144 = load i32, ptr %10, align 4, !tbaa !21
  %145 = lshr i32 %143, %144
  %146 = or i32 %142, %145
  %147 = trunc i32 %146 to i8
  store i8 %147, ptr %5, align 1, !tbaa !22
  %148 = load i8, ptr %5, align 1, !tbaa !22
  %149 = load ptr, ptr %3, align 8, !tbaa !4
  %150 = getelementptr inbounds nuw %struct.FFTextReader, ptr %149, i32 0, i32 2
  %151 = load ptr, ptr %3, align 8, !tbaa !4
  %152 = getelementptr inbounds nuw %struct.FFTextReader, ptr %151, i32 0, i32 4
  %153 = load i32, ptr %152, align 4, !tbaa !18
  %154 = add nsw i32 %153, 1
  store i32 %154, ptr %152, align 4, !tbaa !18
  %155 = sext i32 %153 to i64
  %156 = getelementptr inbounds [8 x i8], ptr %150, i64 0, i64 %155
  store i8 %148, ptr %156, align 1, !tbaa !22
  br label %157

157:                                              ; preds = %160, %132
  %158 = load i32, ptr %10, align 4, !tbaa !21
  %159 = icmp sge i32 %158, 6
  br i1 %159, label %160, label %178

160:                                              ; preds = %157
  %161 = load i32, ptr %10, align 4, !tbaa !21
  %162 = sub nsw i32 %161, 6
  store i32 %162, ptr %10, align 4, !tbaa !21
  %163 = load i32, ptr %11, align 4, !tbaa !21
  %164 = load i32, ptr %10, align 4, !tbaa !21
  %165 = lshr i32 %163, %164
  %166 = and i32 %165, 63
  %167 = or i32 128, %166
  %168 = trunc i32 %167 to i8
  store i8 %168, ptr %5, align 1, !tbaa !22
  %169 = load i8, ptr %5, align 1, !tbaa !22
  %170 = load ptr, ptr %3, align 8, !tbaa !4
  %171 = getelementptr inbounds nuw %struct.FFTextReader, ptr %170, i32 0, i32 2
  %172 = load ptr, ptr %3, align 8, !tbaa !4
  %173 = getelementptr inbounds nuw %struct.FFTextReader, ptr %172, i32 0, i32 4
  %174 = load i32, ptr %173, align 4, !tbaa !18
  %175 = add nsw i32 %174, 1
  store i32 %175, ptr %173, align 4, !tbaa !18
  %176 = sext i32 %174 to i64
  %177 = getelementptr inbounds [8 x i8], ptr %171, i64 0, i64 %176
  store i8 %169, ptr %177, align 1, !tbaa !22
  br label %157, !llvm.loop !26

178:                                              ; preds = %157
  br label %179

179:                                              ; preds = %178, %120
  call void @llvm.lifetime.end.p0(i64 4, ptr %11) #9
  call void @llvm.lifetime.end.p0(i64 4, ptr %10) #9
  call void @llvm.lifetime.end.p0(i64 4, ptr %9) #9
  %180 = load ptr, ptr %3, align 8, !tbaa !4
  %181 = getelementptr inbounds nuw %struct.FFTextReader, ptr %180, i32 0, i32 2
  %182 = load ptr, ptr %3, align 8, !tbaa !4
  %183 = getelementptr inbounds nuw %struct.FFTextReader, ptr %182, i32 0, i32 3
  %184 = load i32, ptr %183, align 8, !tbaa !19
  %185 = add nsw i32 %184, 1
  store i32 %185, ptr %183, align 8, !tbaa !19
  %186 = sext i32 %184 to i64
  %187 = getelementptr inbounds [8 x i8], ptr %181, i64 0, i64 %186
  %188 = load i8, ptr %187, align 1, !tbaa !22
  %189 = zext i8 %188 to i32
  store i32 %189, ptr %2, align 4
  store i32 1, ptr %6, align 4
  br label %190

190:                                              ; preds = %179, %111, %102, %99, %63, %19
  call void @llvm.lifetime.end.p0(i64 1, ptr %5) #9
  call void @llvm.lifetime.end.p0(i64 4, ptr %4) #9
  %191 = load i32, ptr %2, align 4
  ret i32 %191
}