; Function Attrs: nounwind uwtable
define i32 @ff_text_r8(ptr noundef captures(none) %0) local_unnamed_addr #0 {
  %2 = getelementptr inbounds nuw i8, ptr %0, i64 24
  %3 = load i32, ptr %2, align 8, !tbaa !17
  %4 = getelementptr inbounds nuw i8, ptr %0, i64 28
  %5 = load i32, ptr %4, align 4, !tbaa !16
  %6 = icmp slt i32 %3, %5
  br i1 %6, label %7, label %14

7:                                                ; preds = %1
  %8 = getelementptr inbounds nuw i8, ptr %0, i64 16
  %9 = add nsw i32 %3, 1
  store i32 %9, ptr %2, align 8, !tbaa !17
  %10 = sext i32 %3 to i64
  %11 = getelementptr inbounds [8 x i8], ptr %8, i64 0, i64 %10
  %12 = load i8, ptr %11, align 1, !tbaa !19
  %13 = zext i8 %12 to i32
  br label %82

14:                                               ; preds = %1
  %15 = load i32, ptr %0, align 8, !tbaa !18
  %16 = getelementptr inbounds nuw i8, ptr %0, i64 8
  %17 = load ptr, ptr %16, align 8, !tbaa !4
  switch i32 %15, label %36 [
    i32 1, label %18
    i32 2, label %27
  ]

18:                                               ; preds = %14
  %19 = tail call i32 @avio_rl16(ptr noundef %17) #11
  %20 = add i32 %19, -55296
  %21 = icmp ult i32 %20, 2048
  br i1 %21, label %22, label %.thread

22:                                               ; preds = %18
  %23 = load ptr, ptr %16, align 8, !tbaa !4
  %24 = tail call i32 @avio_rl16(ptr noundef %23) #11
  %25 = add i32 %24, -56320
  %26 = or i32 %25, %20
  %or.cond.not = icmp ult i32 %26, 1024
  br i1 %or.cond.not, label %.thread76, label %82

27:                                               ; preds = %14
  %28 = tail call i32 @avio_rb16(ptr noundef %17) #11
  %29 = add i32 %28, -55296
  %30 = icmp ult i32 %29, 2048
  br i1 %30, label %31, label %.thread

31:                                               ; preds = %27
  %32 = load ptr, ptr %16, align 8, !tbaa !4
  %33 = tail call i32 @avio_rb16(ptr noundef %32) #11
  %34 = add i32 %33, -56320
  %35 = or i32 %34, %29
  %or.cond4.not = icmp ult i32 %35, 1024
  br i1 %or.cond4.not, label %.thread76, label %82

36:                                               ; preds = %14
  %37 = tail call i32 @avio_r8(ptr noundef %17) #11
  br label %82

.thread76:                                        ; preds = %31, %22
  %.sink82 = phi i32 [ %20, %22 ], [ %29, %31 ]
  %.sink = phi i32 [ %25, %22 ], [ %34, %31 ]
  %38 = shl nuw nsw i32 %.sink82, 10
  %39 = add nuw nsw i32 %38, 65536
  %40 = or disjoint i32 %.sink, %39
  store i32 0, ptr %2, align 8, !tbaa !17
  br label %46

.thread:                                          ; preds = %27, %18
  %.258 = phi i32 [ %19, %18 ], [ %28, %27 ]
  %.not = icmp eq i32 %.258, 0
  br i1 %.not, label %82, label %41

41:                                               ; preds = %.thread
  store i32 0, ptr %2, align 8, !tbaa !17
  %42 = icmp ult i32 %.258, 128
  br i1 %42, label %43, label %46

43:                                               ; preds = %41
  %44 = trunc nuw nsw i32 %.258 to i8
  %45 = getelementptr inbounds nuw i8, ptr %0, i64 16
  store i32 1, ptr %4, align 4, !tbaa !16
  store i8 %44, ptr %45, align 1, !tbaa !19
  br label %.loopexit

46:                                               ; preds = %.thread76, %41
  %.2587578 = phi i32 [ %40, %.thread76 ], [ %.258, %41 ]
  %.not.i = icmp ult i32 %.2587578, 65536
  %47 = lshr i32 %.2587578, 16
  %spec.select.i = select i1 %.not.i, i32 %.2587578, i32 %47
  %spec.select12.i = select i1 %.not.i, i16 0, i16 16
  %.not11.i = icmp samesign ult i32 %spec.select.i, 256
  %48 = lshr i32 %spec.select.i, 8
  %49 = or disjoint i16 %spec.select12.i, 8
  %.110.i = select i1 %.not11.i, i32 %spec.select.i, i32 %48
  %.1.i = select i1 %.not11.i, i16 %spec.select12.i, i16 %49
  %50 = zext nneg i32 %.110.i to i64
  %51 = getelementptr inbounds nuw [256 x i8], ptr @ff_log2_tab, i64 0, i64 %50
  %52 = load i8, ptr %51, align 1, !tbaa !19
  %53 = zext i8 %52 to i16
  %54 = add nuw nsw i16 %53, 4
  %.lhs.trunc = add nuw nsw i16 %54, %.1.i
  %55 = udiv i16 %.lhs.trunc, 5
  %.zext = zext nneg i16 %55 to i32
  %56 = mul nuw nsw i32 %.zext, 6
  %57 = add nsw i32 %56, -6
  %58 = lshr i32 256, %.zext
  %59 = sub nsw i32 0, %58
  %60 = lshr i32 %.2587578, %57
  %61 = or i32 %60, %59
  %62 = trunc i32 %61 to i8
  %63 = getelementptr inbounds nuw i8, ptr %0, i64 16
  store i32 1, ptr %4, align 4, !tbaa !16
  store i8 %62, ptr %63, align 1, !tbaa !19
  %64 = icmp samesign ugt i16 %.lhs.trunc, 9
  br i1 %64, label %.lr.ph, label %.loopexit

.lr.ph:                                           ; preds = %46, %.lr.ph
  %.05579 = phi i32 [ %65, %.lr.ph ], [ %57, %46 ]
  %65 = add nsw i32 %.05579, -6
  %66 = lshr i32 %.2587578, %65
  %67 = trunc i32 %66 to i8
  %68 = and i8 %67, 63
  %69 = or disjoint i8 %68, -128
  %70 = load i32, ptr %4, align 4, !tbaa !16
  %71 = add nsw i32 %70, 1
  store i32 %71, ptr %4, align 4, !tbaa !16
  %72 = sext i32 %70 to i64
  %73 = getelementptr inbounds [8 x i8], ptr %63, i64 0, i64 %72
  store i8 %69, ptr %73, align 1, !tbaa !19
  %74 = icmp sgt i32 %.05579, 11
  br i1 %74, label %.lr.ph, label %.loopexit.loopexit, !llvm.loop !20

.loopexit.loopexit:                               ; preds = %.lr.ph
  %.pre = load i32, ptr %2, align 8, !tbaa !17
  br label %.loopexit

.loopexit:                                        ; preds = %.loopexit.loopexit, %46, %43
  %75 = phi i32 [ %.pre, %.loopexit.loopexit ], [ 0, %46 ], [ 0, %43 ]
  %76 = getelementptr inbounds nuw i8, ptr %0, i64 16
  %77 = add nsw i32 %75, 1
  store i32 %77, ptr %2, align 8, !tbaa !17
  %78 = sext i32 %75 to i64
  %79 = getelementptr inbounds [8 x i8], ptr %76, i64 0, i64 %78
  %80 = load i8, ptr %79, align 1, !tbaa !19
  %81 = zext i8 %80 to i32
  br label %82

82:                                               ; preds = %31, %22, %.thread, %.loopexit, %36, %7
  %.0 = phi i32 [ %13, %7 ], [ %81, %.loopexit ], [ %37, %36 ], [ 0, %.thread ], [ 0, %22 ], [ 0, %31 ]
  ret i32 %.0
}